; ModuleID = '52/5011.c'
source_filename = "52/5011.c"
target datalayout = "e-m:e-p270:32:32-p271:32:32-p272:64:64-i64:64-f80:128-n8:16:32:64-S128"
target triple = "x86_64-pc-linux-gnu"

@.str = private unnamed_addr constant [6 x i8] c"%d %d\00", align 1
@.str.1 = private unnamed_addr constant [3 x i8] c"%d\00", align 1
@.str.2 = private unnamed_addr constant [4 x i8] c" %d\00", align 1
@.str.3 = private unnamed_addr constant [2 x i8] c" \00", align 1

; Function Attrs: noinline nounwind uwtable
define dso_local i32 @main() #0 {
  %1 = alloca i32, align 4
  %2 = alloca i32, align 4
  %3 = alloca i32, align 4
  %4 = alloca i32, align 4
  %5 = alloca i32, align 4
  %6 = alloca i32, align 4
  %7 = alloca [150 x i32], align 16
  store i32 0, i32* %1, align 4
  %8 = call i32 (i8*, ...) @__isoc99_scanf(i8* getelementptr inbounds ([6 x i8], [6 x i8]* @.str, i64 0, i64 0), i32* %2, i32* %3)
  store i32 1, i32* %4, align 4
  br label %9

9:                                                ; preds = %30, %0
  %10 = load i32, i32* %4, align 4
  %11 = load i32, i32* %2, align 4
  %12 = icmp sle i32 %10, %11
  br i1 %12, label %13, label %33

13:                                               ; preds = %9
  %14 = load i32, i32* %4, align 4
  %15 = icmp eq i32 %14, 1
  br i1 %15, label %16, label %21

16:                                               ; preds = %13
  %17 = load i32, i32* %4, align 4
  %18 = sext i32 %17 to i64
  %19 = getelementptr inbounds [150 x i32], [150 x i32]* %7, i64 0, i64 %18
  %20 = call i32 (i8*, ...) @__isoc99_scanf(i8* getelementptr inbounds ([3 x i8], [3 x i8]* @.str.1, i64 0, i64 0), i32* %19)
  br label %21

21:                                               ; preds = %16, %13
  %22 = load i32, i32* %4, align 4
  %23 = icmp ne i32 %22, 1
  br i1 %23, label %24, label %29

24:                                               ; preds = %21
  %25 = load i32, i32* %4, align 4
  %26 = sext i32 %25 to i64
  %27 = getelementptr inbounds [150 x i32], [150 x i32]* %7, i64 0, i64 %26
  %28 = call i32 (i8*, ...) @__isoc99_scanf(i8* getelementptr inbounds ([4 x i8], [4 x i8]* @.str.2, i64 0, i64 0), i32* %27)
  br label %29

29:                                               ; preds = %24, %21
  br label %30

30:                                               ; preds = %29
  %31 = load i32, i32* %4, align 4
  %32 = add nsw i32 %31, 1
  store i32 %32, i32* %4, align 4
  br label %9

33:                                               ; preds = %9
  %34 = load i32, i32* %2, align 4
  %35 = add nsw i32 %34, 1
  %36 = load i32, i32* %3, align 4
  %37 = sub nsw i32 %35, %36
  store i32 %37, i32* %4, align 4
  br label %38

38:                                               ; preds = %75, %33
  %39 = load i32, i32* %4, align 4
  %40 = load i32, i32* %2, align 4
  %41 = icmp sle i32 %39, %40
  br i1 %41, label %42, label %78

42:                                               ; preds = %38
  %43 = load i32, i32* %4, align 4
  store i32 %43, i32* %5, align 4
  br label %44

44:                                               ; preds = %71, %42
  %45 = load i32, i32* %5, align 4
  %46 = load i32, i32* %4, align 4
  %47 = load i32, i32* %2, align 4
  %48 = load i32, i32* %3, align 4
  %49 = sub nsw i32 %47, %48
  %50 = sub nsw i32 %46, %49
  %51 = add nsw i32 %50, 1
  %52 = icmp sge i32 %45, %51
  br i1 %52, label %53, label %74

53:                                               ; preds = %44
  %54 = load i32, i32* %5, align 4
  %55 = sext i32 %54 to i64
  %56 = getelementptr inbounds [150 x i32], [150 x i32]* %7, i64 0, i64 %55
  %57 = load i32, i32* %56, align 4
  store i32 %57, i32* %6, align 4
  %58 = load i32, i32* %5, align 4
  %59 = sub nsw i32 %58, 1
  %60 = sext i32 %59 to i64
  %61 = getelementptr inbounds [150 x i32], [150 x i32]* %7, i64 0, i64 %60
  %62 = load i32, i32* %61, align 4
  %63 = load i32, i32* %5, align 4
  %64 = sext i32 %63 to i64
  %65 = getelementptr inbounds [150 x i32], [150 x i32]* %7, i64 0, i64 %64
  store i32 %62, i32* %65, align 4
  %66 = load i32, i32* %6, align 4
  %67 = load i32, i32* %5, align 4
  %68 = sub nsw i32 %67, 1
  %69 = sext i32 %68 to i64
  %70 = getelementptr inbounds [150 x i32], [150 x i32]* %7, i64 0, i64 %69
  store i32 %66, i32* %70, align 4
  br label %71

71:                                               ; preds = %53
  %72 = load i32, i32* %5, align 4
  %73 = add nsw i32 %72, -1
  store i32 %73, i32* %5, align 4
  br label %44

74:                                               ; preds = %44
  br label %75

75:                                               ; preds = %74
  %76 = load i32, i32* %4, align 4
  %77 = add nsw i32 %76, 1
  store i32 %77, i32* %4, align 4
  br label %38

78:                                               ; preds = %38
  store i32 1, i32* %4, align 4
  br label %79

79:                                               ; preds = %95, %78
  %80 = load i32, i32* %4, align 4
  %81 = load i32, i32* %2, align 4
  %82 = icmp sle i32 %80, %81
  br i1 %82, label %83, label %98

83:                                               ; preds = %79
  %84 = load i32, i32* %4, align 4
  %85 = sext i32 %84 to i64
  %86 = getelementptr inbounds [150 x i32], [150 x i32]* %7, i64 0, i64 %85
  %87 = load i32, i32* %86, align 4
  %88 = call i32 (i8*, ...) @printf(i8* getelementptr inbounds ([3 x i8], [3 x i8]* @.str.1, i64 0, i64 0), i32 %87)
  %89 = load i32, i32* %4, align 4
  %90 = load i32, i32* %2, align 4
  %91 = icmp ne i32 %89, %90
  br i1 %91, label %92, label %94

92:                                               ; preds = %83
  %93 = call i32 (i8*, ...) @printf(i8* getelementptr inbounds ([2 x i8], [2 x i8]* @.str.3, i64 0, i64 0))
  br label %94

94:                                               ; preds = %92, %83
  br label %95

95:                                               ; preds = %94
  %96 = load i32, i32* %4, align 4
  %97 = add nsw i32 %96, 1
  store i32 %97, i32* %4, align 4
  br label %79

98:                                               ; preds = %79
  %99 = load i32, i32* %1, align 4
  ret i32 %99
}

declare dso_local i32 @__isoc99_scanf(i8*, ...) #1

declare dso_local i32 @printf(i8*, ...) #1


!llvm.module.flags = !{!0}
!llvm.ident = !{!1}

!0 = !{i32 1, !"wchar_size", i32 4}
!1 = !{!"clang version 10.0.0-4ubuntu1 "}
